target datalayout = "e-m:e-p270:32:32-p271:32:32-p272:64:64-i64:64-i128:128-f80:128-n8:16:32:64-S128"
target triple = "x86_64-pc-linux-gnu"

%struct.QuadTree_struct = type { i32, double, i32, ptr, double, ptr, ptr, ptr, i32, ptr }

@stderr = external global ptr, align 8
@.str.4 = private unnamed_addr constant [58 x i8] c"integer overflow when trying to allocate %zu * %zu bytes\0A\00", align 1
@.str.5 = private unnamed_addr constant [49 x i8] c"out of memory when trying to allocate %zu bytes\0A\00", align 1

; Function Attrs: inlinehint nounwind uwtable
define internal ptr @gv_calloc(i64 noundef %0, i64 noundef %1) #2 {
  %3 = alloca i64, align 8
  %4 = alloca i64, align 8
  %5 = alloca ptr, align 8
  store i64 %0, ptr %3, align 8, !tbaa !22
  store i64 %1, ptr %4, align 8, !tbaa !22
  %6 = load i64, ptr %3, align 8, !tbaa !22
  %7 = icmp ugt i64 %6, 0
  br i1 %7, label %8, label %18

8:                                                ; preds = %2
  %9 = load i64, ptr %3, align 8, !tbaa !22
  %10 = udiv i64 -1, %9
  %11 = load i64, ptr %4, align 8, !tbaa !22
  %12 = icmp ult i64 %10, %11
  br i1 %12, label %13, label %18

13:                                               ; preds = %8
  %14 = load ptr, ptr @stderr, align 8, !tbaa !24
  %15 = load i64, ptr %3, align 8, !tbaa !22
  %16 = load i64, ptr %4, align 8, !tbaa !22
  %17 = call i32 (ptr, ptr, ...) @fprintf(ptr noundef %14, ptr noundef @.str.4, i64 noundef %15, i64 noundef %16) #11
  call void @graphviz_exit(i32 noundef 1) #12
  unreachable

18:                                               ; preds = %8, %2
  call void @llvm.lifetime.start.p0(i64 8, ptr %5) #11
  %19 = load i64, ptr %3, align 8, !tbaa !22
  %20 = load i64, ptr %4, align 8, !tbaa !22
  %21 = call noalias ptr @calloc(i64 noundef %19, i64 noundef %20) #13
  store ptr %21, ptr %5, align 8, !tbaa !26
  %22 = load i64, ptr %3, align 8, !tbaa !22
  %23 = icmp ugt i64 %22, 0
  br i1 %23, label %24, label %36

24:                                               ; preds = %18
  %25 = load i64, ptr %4, align 8, !tbaa !22
  %26 = icmp ugt i64 %25, 0
  br i1 %26, label %27, label %36

27:                                               ; preds = %24
  %28 = load ptr, ptr %5, align 8, !tbaa !26
  %29 = icmp eq ptr %28, null
  br i1 %29, label %30, label %36

30:                                               ; preds = %27
  %31 = load ptr, ptr @stderr, align 8, !tbaa !24
  %32 = load i64, ptr %3, align 8, !tbaa !22
  %33 = load i64, ptr %4, align 8, !tbaa !22
  %34 = mul i64 %32, %33
  %35 = call i32 (ptr, ptr, ...) @fprintf(ptr noundef %31, ptr noundef @.str.5, i64 noundef %34) #11
  call void @graphviz_exit(i32 noundef 1) #12
  unreachable

36:                                               ; preds = %27, %24, %18
  %37 = load ptr, ptr %5, align 8, !tbaa !26
  call void @llvm.lifetime.end.p0(i64 8, ptr %5) #11
  ret ptr %37
}

; Function Attrs: nounwind uwtable
define void @QuadTree_get_supernodes(ptr noundef %0, double noundef %1, ptr noundef %2, i32 noundef %3, ptr noundef %4, ptr noundef %5, ptr noundef %6, ptr noundef %7, ptr noundef %8, ptr noundef %9) #0 {
  %11 = alloca ptr, align 8
  %12 = alloca double, align 8
  %13 = alloca ptr, align 8
  %14 = alloca i32, align 4
  %15 = alloca ptr, align 8
  %16 = alloca ptr, align 8
  %17 = alloca ptr, align 8
  %18 = alloca ptr, align 8
  %19 = alloca ptr, align 8
  %20 = alloca ptr, align 8
  %21 = alloca i32, align 4
  store ptr %0, ptr %11, align 8, !tbaa !3
  store double %1, ptr %12, align 8, !tbaa !8
  store ptr %2, ptr %13, align 8, !tbaa !10
  store i32 %3, ptr %14, align 4, !tbaa !12
  store ptr %4, ptr %15, align 8, !tbaa !14
  store ptr %5, ptr %16, align 8, !tbaa !14
  store ptr %6, ptr %17, align 8, !tbaa !16
  store ptr %7, ptr %18, align 8, !tbaa !16
  store ptr %8, ptr %19, align 8, !tbaa !16
  store ptr %9, ptr %20, align 8, !tbaa !10
  call void @llvm.lifetime.start.p0(i64 4, ptr %21) #11
  %22 = load ptr, ptr %11, align 8, !tbaa !3
  %23 = getelementptr inbounds nuw %struct.QuadTree_struct, ptr %22, i32 0, i32 2
  %24 = load i32, ptr %23, align 8, !tbaa !18
  store i32 %24, ptr %21, align 4, !tbaa !12
  %25 = load ptr, ptr %20, align 8, !tbaa !10
  store double 0.000000e+00, ptr %25, align 8, !tbaa !8
  %26 = load ptr, ptr %15, align 8, !tbaa !14
  store i32 0, ptr %26, align 4, !tbaa !12
  %27 = load ptr, ptr %16, align 8, !tbaa !14
  store i32 10, ptr %27, align 4, !tbaa !12
  %28 = load ptr, ptr %17, align 8, !tbaa !16
  %29 = load ptr, ptr %28, align 8, !tbaa !10
  %30 = icmp ne ptr %29, null
  br i1 %30, label %39, label %31

31:                                               ; preds = %10
  %32 = load ptr, ptr %16, align 8, !tbaa !14
  %33 = load i32, ptr %32, align 4, !tbaa !12
  %34 = load i32, ptr %21, align 4, !tbaa !12
  %35 = mul nsw i32 %33, %34
  %36 = sext i32 %35 to i64
  %37 = call ptr @gv_calloc(i64 noundef %36, i64 noundef 8)
  %38 = load ptr, ptr %17, align 8, !tbaa !16
  store ptr %37, ptr %38, align 8, !tbaa !10
  br label %39

39:                                               ; preds = %31, %10
  %40 = load ptr, ptr %18, align 8, !tbaa !16
  %41 = load ptr, ptr %40, align 8, !tbaa !10
  %42 = icmp ne ptr %41, null
  br i1 %42, label %49, label %43

43:                                               ; preds = %39
  %44 = load ptr, ptr %16, align 8, !tbaa !14
  %45 = load i32, ptr %44, align 4, !tbaa !12
  %46 = sext i32 %45 to i64
  %47 = call ptr @gv_calloc(i64 noundef %46, i64 noundef 8)
  %48 = load ptr, ptr %18, align 8, !tbaa !16
  store ptr %47, ptr %48, align 8, !tbaa !10
  br label %49

49:                                               ; preds = %43, %39
  %50 = load ptr, ptr %19, align 8, !tbaa !16
  %51 = load ptr, ptr %50, align 8, !tbaa !10
  %52 = icmp ne ptr %51, null
  br i1 %52, label %59, label %53

53:                                               ; preds = %49
  %54 = load ptr, ptr %16, align 8, !tbaa !14
  %55 = load i32, ptr %54, align 4, !tbaa !12
  %56 = sext i32 %55 to i64
  %57 = call ptr @gv_calloc(i64 noundef %56, i64 noundef 8)
  %58 = load ptr, ptr %19, align 8, !tbaa !16
  store ptr %57, ptr %58, align 8, !tbaa !10
  br label %59

59:                                               ; preds = %53, %49
  %60 = load ptr, ptr %11, align 8, !tbaa !3
  %61 = load double, ptr %12, align 8, !tbaa !8
  %62 = load ptr, ptr %13, align 8, !tbaa !10
  %63 = load i32, ptr %14, align 4, !tbaa !12
  %64 = load ptr, ptr %15, align 8, !tbaa !14
  %65 = load ptr, ptr %16, align 8, !tbaa !14
  %66 = load ptr, ptr %17, align 8, !tbaa !16
  %67 = load ptr, ptr %18, align 8, !tbaa !16
  %68 = load ptr, ptr %19, align 8, !tbaa !16
  %69 = load ptr, ptr %20, align 8, !tbaa !10
  call void @QuadTree_get_supernodes_internal(ptr noundef %60, double noundef %61, ptr noundef %62, i32 noundef %63, ptr noundef %64, ptr noundef %65, ptr noundef %66, ptr noundef %67, ptr noundef %68, ptr noundef %69)
  call void @llvm.lifetime.end.p0(i64 4, ptr %21) #11
  ret void
}