; Function Attrs: nounwind uwtable
define void @QuadTree_get_supernodes(ptr noundef captures(address_is_null) %0, double noundef %1, ptr noundef %2, i32 noundef %3, ptr noundef captures(none) initializes((0, 4)) %4, ptr noundef captures(none) initializes((0, 4)) %5, ptr noundef captures(none) %6, ptr noundef captures(none) %7, ptr noundef captures(none) %8, ptr noundef captures(none) initializes((0, 8)) %9) local_unnamed_addr #0 {
  %11 = getelementptr inbounds nuw i8, ptr %0, i64 16
  %12 = load i32, ptr %11, align 8, !tbaa !3
  store double 0.000000e+00, ptr %9, align 8, !tbaa !13
  store i32 0, ptr %4, align 4, !tbaa !14
  store i32 10, ptr %5, align 4, !tbaa !14
  %13 = load ptr, ptr %6, align 8, !tbaa !15
  %.not = icmp eq ptr %13, null
  br i1 %.not, label %14, label %30

14:                                               ; preds = %10
  %15 = mul nsw i32 %12, 10
  %16 = sext i32 %15 to i64
  %.not.i = icmp eq i32 %12, 0
  br i1 %.not.i, label %.thread.i, label %18

.thread.i:                                        ; preds = %14
  %17 = tail call noalias ptr @calloc(i64 noundef 0, i64 noundef 8) #15
  br label %gv_calloc.exit

18:                                               ; preds = %14
  %mul.ov.i = icmp slt i32 %12, 0
  br i1 %mul.ov.i, label %19, label %22

19:                                               ; preds = %18
  %20 = load ptr, ptr @stderr, align 8, !tbaa !16
  %21 = tail call i32 (ptr, ptr, ...) @fprintf(ptr noundef %20, ptr noundef nonnull @.str.4, i64 noundef %16, i64 noundef 8) #16
  tail call fastcc void @graphviz_exit() #17
  unreachable

22:                                               ; preds = %18
  %23 = tail call noalias ptr @calloc(i64 noundef %16, i64 noundef 8) #15
  %24 = icmp eq ptr %23, null
  br i1 %24, label %25, label %gv_calloc.exit

25:                                               ; preds = %22
  %26 = load ptr, ptr @stderr, align 8, !tbaa !16
  %27 = shl nuw nsw i64 %16, 3
  %28 = tail call i32 (ptr, ptr, ...) @fprintf(ptr noundef %26, ptr noundef nonnull @.str.5, i64 noundef %27) #16
  tail call fastcc void @graphviz_exit() #17
  unreachable

gv_calloc.exit:                                   ; preds = %.thread.i, %22
  %29 = phi ptr [ %17, %.thread.i ], [ %23, %22 ]
  store ptr %29, ptr %6, align 8, !tbaa !15
  br label %30

30:                                               ; preds = %gv_calloc.exit, %10
  %31 = load ptr, ptr %7, align 8, !tbaa !15
  %.not23 = icmp eq ptr %31, null
  br i1 %.not23, label %32, label %38

32:                                               ; preds = %30
  %33 = tail call noalias dereferenceable_or_null(80) ptr @calloc(i64 noundef 10, i64 noundef 8) #15
  %34 = icmp eq ptr %33, null
  br i1 %34, label %35, label %gv_calloc.exit29

35:                                               ; preds = %32
  %36 = load ptr, ptr @stderr, align 8, !tbaa !16
  %37 = tail call i32 (ptr, ptr, ...) @fprintf(ptr noundef %36, ptr noundef nonnull @.str.5, i64 noundef 80) #16
  tail call fastcc void @graphviz_exit() #17
  unreachable

gv_calloc.exit29:                                 ; preds = %32
  store ptr %33, ptr %7, align 8, !tbaa !15
  br label %38

38:                                               ; preds = %gv_calloc.exit29, %30
  %39 = load ptr, ptr %8, align 8, !tbaa !15
  %.not24 = icmp eq ptr %39, null
  br i1 %.not24, label %40, label %46

40:                                               ; preds = %38
  %41 = tail call noalias dereferenceable_or_null(80) ptr @calloc(i64 noundef 10, i64 noundef 8) #15
  %42 = icmp eq ptr %41, null
  br i1 %42, label %43, label %gv_calloc.exit34

43:                                               ; preds = %40
  %44 = load ptr, ptr @stderr, align 8, !tbaa !16
  %45 = tail call i32 (ptr, ptr, ...) @fprintf(ptr noundef %44, ptr noundef nonnull @.str.5, i64 noundef 80) #16
  tail call fastcc void @graphviz_exit() #17
  unreachable

gv_calloc.exit34:                                 ; preds = %40
  store ptr %41, ptr %8, align 8, !tbaa !15
  br label %46

46:                                               ; preds = %gv_calloc.exit34, %38
  tail call fastcc void @QuadTree_get_supernodes_internal(ptr noundef nonnull %0, double noundef %1, ptr noundef %2, i32 noundef %3, ptr noundef nonnull %4, ptr noundef nonnull %5, ptr noundef nonnull %6, ptr noundef nonnull %7, ptr noundef nonnull %8, ptr noundef nonnull %9)
  ret void
}